target datalayout = "e-m:e-p270:32:32-p271:32:32-p272:64:64-i64:64-i128:128-f80:128-n8:16:32:64-S128"
target triple = "x86_64-unknown-linux-gnu"

%"class.datalog::table_signature" = type <{ %"class.datalog::tr_infrastructure<datalog::table_traits>::signature_base", i32, [4 x i8] }>
%"class.datalog::tr_infrastructure<datalog::table_traits>::signature_base" = type { %class.svector.2 }
%class.svector.2 = type { %class.vector.3 }
%class.vector.3 = type { ptr }
%class.symbol = type { ptr }
%"struct.datalog::table_signature::hash" = type { i8 }
%"struct.datalog::table_signature::eq" = type { i8 }
%"class.datalog::sparse_table_plugin" = type { %"class.datalog::table_plugin", %class.map.6 }
%"class.datalog::table_plugin" = type { %"class.datalog::tr_infrastructure<datalog::table_traits>::plugin_object" }
%"class.datalog::tr_infrastructure<datalog::table_traits>::plugin_object" = type { ptr, i32, %class.symbol, ptr }
%class.map.6 = type { %class.table2map.7 }
%class.table2map.7 = type { %class.core_hashtable.8 }
%class.core_hashtable.8 = type <{ ptr, i32, i32, i32, [4 x i8] }>
%struct._key_data.16 = type { %"class.datalog::table_signature", ptr }
%class.default_map_entry.30 = type { %class.default_hash_entry.31 }
%class.default_hash_entry.31 = type { i32, i32, %struct._key_data.16 }
%"struct.table2map<default_map_entry<datalog::table_signature, ptr_vector<datalog::sparse_table> *>, datalog::table_signature::hash, datalog::table_signature::eq>::entry_hash_proc" = type { i8 }
%"struct.table2map<default_map_entry<datalog::table_signature, ptr_vector<datalog::sparse_table> *>, datalog::table_signature::hash, datalog::table_signature::eq>::entry_eq_proc" = type { i8 }

@.str.10 = private unnamed_addr constant [7 x i8] c"sparse\00", align 1

; Function Attrs: mustprogress nounwind uwtable
define linkonce_odr hidden void @_ZN6vectorImLb0EjEC2Ev(ptr noundef nonnull align 8 dereferenceable(8) %this) unnamed_addr #5 comdat align 2 {
entry:
  %this.addr = alloca ptr, align 8
  store ptr %this, ptr %this.addr, align 8
  %this1 = load ptr, ptr %this.addr, align 8
  %m_data = getelementptr inbounds %class.vector.3, ptr %this1, i32 0, i32 0
  store ptr null, ptr %m_data, align 8
  ret void
}

; Function Attrs: mustprogress nounwind uwtable
define linkonce_odr hidden void @_ZN7svectorImjEC2Ev(ptr noundef nonnull align 8 dereferenceable(8) %this) unnamed_addr #5 comdat align 2 {
entry:
  %this.addr = alloca ptr, align 8
  store ptr %this, ptr %this.addr, align 8
  %this1 = load ptr, ptr %this.addr, align 8
  %0 = getelementptr inbounds i8, ptr %this1, i64 0
  call void @llvm.memset.p0.i64(ptr align 8 %0, i8 0, i64 8, i1 false)
  call void @_ZN6vectorImLb0EjEC2Ev(ptr noundef nonnull align 8 dereferenceable(8) %this1) #3
  ret void
}

; Function Attrs: mustprogress uwtable
define linkonce_odr hidden void @_ZN7datalog17tr_infrastructureINS_12table_traitsEE14signature_baseC2Ev(ptr noundef nonnull align 8 dereferenceable(8) %this) unnamed_addr #4 comdat align 2 {
entry:
  %this.addr = alloca ptr, align 8
  store ptr %this, ptr %this.addr, align 8
  %this1 = load ptr, ptr %this.addr, align 8
  call void @_ZN7svectorImjEC2Ev(ptr noundef nonnull align 8 dereferenceable(8) %this1)
  ret void
}

; Function Attrs: mustprogress uwtable
define linkonce_odr hidden void @_ZN7datalog15table_signatureC2Ev(ptr noundef nonnull align 8 dereferenceable(12) %this) unnamed_addr #4 comdat align 2 {
entry:
  %this.addr = alloca ptr, align 8
  store ptr %this, ptr %this.addr, align 8
  %this1 = load ptr, ptr %this.addr, align 8
  call void @_ZN7datalog17tr_infrastructureINS_12table_traitsEE14signature_baseC2Ev(ptr noundef nonnull align 8 dereferenceable(8) %this1)
  %m_functional_columns = getelementptr inbounds %"class.datalog::table_signature", ptr %this1, i32 0, i32 1
  store i32 0, ptr %m_functional_columns, align 8
  ret void
}

; Function Attrs: mustprogress uwtable
define linkonce_odr hidden void @_ZN9_key_dataIN7datalog15table_signatureEP10ptr_vectorINS0_12sparse_tableEEEC2Ev(ptr noundef nonnull align 8 dereferenceable(24) %this) unnamed_addr #4 comdat align 2 {
entry:
  %this.addr = alloca ptr, align 8
  store ptr %this, ptr %this.addr, align 8
  %this1 = load ptr, ptr %this.addr, align 8
  %m_key = getelementptr inbounds %struct._key_data.16, ptr %this1, i32 0, i32 0
  call void @_ZN7datalog15table_signatureC2Ev(ptr noundef nonnull align 8 dereferenceable(12) %m_key)
  ret void
}

; Function Attrs: mustprogress uwtable
define linkonce_odr hidden void @_ZN18default_hash_entryI9_key_dataIN7datalog15table_signatureEP10ptr_vectorINS1_12sparse_tableEEEEC2Ev(ptr noundef nonnull align 8 dereferenceable(32) %this) unnamed_addr #4 comdat align 2 {
entry:
  %this.addr = alloca ptr, align 8
  store ptr %this, ptr %this.addr, align 8
  %this1 = load ptr, ptr %this.addr, align 8
  %m_hash = getelementptr inbounds %class.default_hash_entry.31, ptr %this1, i32 0, i32 0
  store i32 0, ptr %m_hash, align 8
  %m_state = getelementptr inbounds %class.default_hash_entry.31, ptr %this1, i32 0, i32 1
  store i32 0, ptr %m_state, align 4
  %m_data = getelementptr inbounds %class.default_hash_entry.31, ptr %this1, i32 0, i32 2
  call void @_ZN9_key_dataIN7datalog15table_signatureEP10ptr_vectorINS0_12sparse_tableEEEC2Ev(ptr noundef nonnull align 8 dereferenceable(24) %m_data)
  ret void
}

; Function Attrs: mustprogress uwtable
define linkonce_odr hidden void @_ZN17default_map_entryIN7datalog15table_signatureEP10ptr_vectorINS0_12sparse_tableEEEC2Ev(ptr noundef nonnull align 8 dereferenceable(32) %this) unnamed_addr #4 comdat align 2 {
entry:
  %this.addr = alloca ptr, align 8
  store ptr %this, ptr %this.addr, align 8
  %this1 = load ptr, ptr %this.addr, align 8
  call void @_ZN18default_hash_entryI9_key_dataIN7datalog15table_signatureEP10ptr_vectorINS1_12sparse_tableEEEEC2Ev(ptr noundef nonnull align 8 dereferenceable(32) %this1)
  ret void
}

; Function Attrs: mustprogress uwtable
define linkonce_odr hidden noalias noundef ptr @_Z10alloc_vectI17default_map_entryIN7datalog15table_signatureEP10ptr_vectorINS1_12sparse_tableEEEEPT_j(i32 noundef %sz) #4 comdat {
entry:
  %sz.addr = alloca i32, align 4
  %r = alloca ptr, align 8
  %curr = alloca ptr, align 8
  %i = alloca i32, align 4
  store i32 %sz, ptr %sz.addr, align 4
  %0 = load i32, ptr %sz.addr, align 4
  %conv = zext i32 %0 to i64
  %mul = mul i64 32, %conv
  %call = call noalias noundef ptr @_ZN6memory8allocateEm(i64 noundef %mul)
  store ptr %call, ptr %r, align 8
  %1 = load ptr, ptr %r, align 8
  store ptr %1, ptr %curr, align 8
  store i32 0, ptr %i, align 4
  br label %for.cond

for.cond:                                         ; preds = %for.inc, %entry
  %2 = load i32, ptr %i, align 4
  %3 = load i32, ptr %sz.addr, align 4
  %cmp = icmp ult i32 %2, %3
  br i1 %cmp, label %for.body, label %for.end

for.body:                                         ; preds = %for.cond
  %4 = load ptr, ptr %curr, align 8
  call void @llvm.memset.p0.i64(ptr align 8 %4, i8 0, i64 32, i1 false)
  call void @_ZN17default_map_entryIN7datalog15table_signatureEP10ptr_vectorINS0_12sparse_tableEEEC2Ev(ptr noundef nonnull align 8 dereferenceable(32) %4)
  br label %for.inc

for.inc:                                          ; preds = %for.body
  %5 = load i32, ptr %i, align 4
  %inc = add i32 %5, 1
  store i32 %inc, ptr %i, align 4
  %6 = load ptr, ptr %curr, align 8
  %incdec.ptr = getelementptr inbounds %class.default_map_entry.30, ptr %6, i32 1
  store ptr %incdec.ptr, ptr %curr, align 8
  br label %for.cond, !llvm.loop !110

for.end:                                          ; preds = %for.cond
  %7 = load ptr, ptr %r, align 8
  ret ptr %7
}

; Function Attrs: mustprogress uwtable
define linkonce_odr hidden noundef ptr @_ZN14core_hashtableI17default_map_entryIN7datalog15table_signatureEP10ptr_vectorINS1_12sparse_tableEEEN9table2mapIS7_NS2_4hashENS2_2eqEE15entry_hash_procENSB_13entry_eq_procEE11alloc_tableEj(ptr noundef nonnull align 8 dereferenceable(20) %this, i32 noundef %size) #4 comdat align 2 {
entry:
  %this.addr = alloca ptr, align 8
  %size.addr = alloca i32, align 4
  %entries = alloca ptr, align 8
  store ptr %this, ptr %this.addr, align 8
  store i32 %size, ptr %size.addr, align 4
  %0 = load i32, ptr %size.addr, align 4
  %call = call noalias noundef ptr @_Z10alloc_vectI17default_map_entryIN7datalog15table_signatureEP10ptr_vectorINS1_12sparse_tableEEEEPT_j(i32 noundef %0)
  store ptr %call, ptr %entries, align 8
  %1 = load ptr, ptr %entries, align 8
  ret ptr %1
}

; Function Attrs: mustprogress uwtable
define linkonce_odr hidden void @_ZN14core_hashtableI17default_map_entryIN7datalog15table_signatureEP10ptr_vectorINS1_12sparse_tableEEEN9table2mapIS7_NS2_4hashENS2_2eqEE15entry_hash_procENSB_13entry_eq_procEEC2EjRKSC_RKSD_(ptr noundef nonnull align 8 dereferenceable(20) %this, i32 noundef %initial_capacity, ptr noundef nonnull align 1 dereferenceable(1) %h, ptr noundef nonnull align 1 dereferenceable(1) %e) unnamed_addr #4 comdat align 2 {
entry:
  %this.addr = alloca ptr, align 8
  %initial_capacity.addr = alloca i32, align 4
  %h.addr = alloca ptr, align 8
  %e.addr = alloca ptr, align 8
  store ptr %this, ptr %this.addr, align 8
  store i32 %initial_capacity, ptr %initial_capacity.addr, align 4
  store ptr %h, ptr %h.addr, align 8
  store ptr %e, ptr %e.addr, align 8
  %this1 = load ptr, ptr %this.addr, align 8
  %0 = load i32, ptr %initial_capacity.addr, align 4
  %call = call noundef ptr @_ZN14core_hashtableI17default_map_entryIN7datalog15table_signatureEP10ptr_vectorINS1_12sparse_tableEEEN9table2mapIS7_NS2_4hashENS2_2eqEE15entry_hash_procENSB_13entry_eq_procEE11alloc_tableEj(ptr noundef nonnull align 8 dereferenceable(20) %this1, i32 noundef %0)
  %m_table = getelementptr inbounds %class.core_hashtable.8, ptr %this1, i32 0, i32 0
  store ptr %call, ptr %m_table, align 8
  %1 = load i32, ptr %initial_capacity.addr, align 4
  %m_capacity = getelementptr inbounds %class.core_hashtable.8, ptr %this1, i32 0, i32 1
  store i32 %1, ptr %m_capacity, align 8
  %m_size = getelementptr inbounds %class.core_hashtable.8, ptr %this1, i32 0, i32 2
  store i32 0, ptr %m_size, align 4
  %m_num_deleted = getelementptr inbounds %class.core_hashtable.8, ptr %this1, i32 0, i32 3
  store i32 0, ptr %m_num_deleted, align 8
  ret void
}

; Function Attrs: mustprogress nounwind uwtable
define linkonce_odr hidden void @_ZN9table2mapI17default_map_entryIN7datalog15table_signatureEP10ptr_vectorINS1_12sparse_tableEEENS2_4hashENS2_2eqEE13entry_eq_procC2ERKS9_(ptr noundef nonnull align 1 dereferenceable(1) %this, ptr noundef nonnull align 1 dereferenceable(1) %p) unnamed_addr #5 comdat align 2 {
entry:
  %this.addr = alloca ptr, align 8
  %p.addr = alloca ptr, align 8
  store ptr %this, ptr %this.addr, align 8
  store ptr %p, ptr %p.addr, align 8
  ret void
}

; Function Attrs: mustprogress nounwind uwtable
define linkonce_odr hidden void @_ZN9table2mapI17default_map_entryIN7datalog15table_signatureEP10ptr_vectorINS1_12sparse_tableEEENS2_4hashENS2_2eqEE15entry_hash_procC2ERKS8_(ptr noundef nonnull align 1 dereferenceable(1) %this, ptr noundef nonnull align 1 dereferenceable(1) %p) unnamed_addr #5 comdat align 2 {
entry:
  %this.addr = alloca ptr, align 8
  %p.addr = alloca ptr, align 8
  store ptr %this, ptr %this.addr, align 8
  store ptr %p, ptr %p.addr, align 8
  ret void
}

; Function Attrs: mustprogress nounwind uwtable
define linkonce_odr hidden void @_ZN7datalog17tr_infrastructureINS_12table_traitsEE13plugin_objectD2Ev(ptr noundef nonnull align 8 dereferenceable(32) %this) unnamed_addr #5 comdat align 2 {
entry:
  %this.addr = alloca ptr, align 8
  store ptr %this, ptr %this.addr, align 8
  ret void
}

; Function Attrs: mustprogress uwtable
define linkonce_odr hidden void @_ZN9table2mapI17default_map_entryIN7datalog15table_signatureEP10ptr_vectorINS1_12sparse_tableEEENS2_4hashENS2_2eqEEC2ERKS8_RKS9_(ptr noundef nonnull align 8 dereferenceable(24) %this, ptr noundef nonnull align 1 dereferenceable(1) %h, ptr noundef nonnull align 1 dereferenceable(1) %e) unnamed_addr #4 comdat align 2 {
entry:
  %this.addr = alloca ptr, align 8
  %h.addr = alloca ptr, align 8
  %e.addr = alloca ptr, align 8
  %ref.tmp = alloca %"struct.table2map<default_map_entry<datalog::table_signature, ptr_vector<datalog::sparse_table> *>, datalog::table_signature::hash, datalog::table_signature::eq>::entry_hash_proc", align 1
  %ref.tmp2 = alloca %"struct.table2map<default_map_entry<datalog::table_signature, ptr_vector<datalog::sparse_table> *>, datalog::table_signature::hash, datalog::table_signature::eq>::entry_eq_proc", align 1
  store ptr %this, ptr %this.addr, align 8
  store ptr %h, ptr %h.addr, align 8
  store ptr %e, ptr %e.addr, align 8
  %this1 = load ptr, ptr %this.addr, align 8
  %m_table = getelementptr inbounds %class.table2map.7, ptr %this1, i32 0, i32 0
  %0 = load ptr, ptr %h.addr, align 8
  call void @_ZN9table2mapI17default_map_entryIN7datalog15table_signatureEP10ptr_vectorINS1_12sparse_tableEEENS2_4hashENS2_2eqEE15entry_hash_procC2ERKS8_(ptr noundef nonnull align 1 dereferenceable(1) %ref.tmp, ptr noundef nonnull align 1 dereferenceable(1) %0)
  %1 = load ptr, ptr %e.addr, align 8
  call void @_ZN9table2mapI17default_map_entryIN7datalog15table_signatureEP10ptr_vectorINS1_12sparse_tableEEENS2_4hashENS2_2eqEE13entry_eq_procC2ERKS9_(ptr noundef nonnull align 1 dereferenceable(1) %ref.tmp2, ptr noundef nonnull align 1 dereferenceable(1) %1)
  call void @_ZN14core_hashtableI17default_map_entryIN7datalog15table_signatureEP10ptr_vectorINS1_12sparse_tableEEEN9table2mapIS7_NS2_4hashENS2_2eqEE15entry_hash_procENSB_13entry_eq_procEEC2EjRKSC_RKSD_(ptr noundef nonnull align 8 dereferenceable(20) %m_table, i32 noundef 8, ptr noundef nonnull align 1 dereferenceable(1) %ref.tmp, ptr noundef nonnull align 1 dereferenceable(1) %ref.tmp2)
  ret void
}

; Function Attrs: mustprogress nounwind uwtable
define linkonce_odr hidden void @_ZN7datalog17tr_infrastructureINS_12table_traitsEE13plugin_objectC2ERK6symbolRNS_16relation_managerE(ptr noundef nonnull align 8 dereferenceable(32) %this, ptr noundef nonnull align 8 dereferenceable(8) %name, ptr noundef nonnull align 1 %manager) unnamed_addr #5 comdat align 2 {
entry:
  %this.addr = alloca ptr, align 8
  %name.addr = alloca ptr, align 8
  %manager.addr = alloca ptr, align 8
  store ptr %this, ptr %this.addr, align 8
  store ptr %name, ptr %name.addr, align 8
  store ptr %manager, ptr %manager.addr, align 8
  %this1 = load ptr, ptr %this.addr, align 8
  store ptr getelementptr inbounds ({ [27 x ptr] }, ptr @_ZTVN7datalog17tr_infrastructureINS_12table_traitsEE13plugin_objectE, i32 0, i32 0, i32 2), ptr %this1, align 8
  %m_kind = getelementptr inbounds %"class.datalog::tr_infrastructure<datalog::table_traits>::plugin_object", ptr %this1, i32 0, i32 1
  store i32 -1, ptr %m_kind, align 8
  %m_name = getelementptr inbounds %"class.datalog::tr_infrastructure<datalog::table_traits>::plugin_object", ptr %this1, i32 0, i32 2
  %0 = load ptr, ptr %name.addr, align 8
  call void @llvm.memcpy.p0.p0.i64(ptr align 8 %m_name, ptr align 8 %0, i64 8, i1 false)
  %m_manager = getelementptr inbounds %"class.datalog::tr_infrastructure<datalog::table_traits>::plugin_object", ptr %this1, i32 0, i32 3
  %1 = load ptr, ptr %manager.addr, align 8
  store ptr %1, ptr %m_manager, align 8
  ret void
}

; Function Attrs: mustprogress nounwind uwtable
define linkonce_odr hidden void @_ZN7datalog12table_pluginD2Ev(ptr noundef nonnull align 8 dereferenceable(32) %this) unnamed_addr #5 comdat align 2 {
entry:
  %this.addr = alloca ptr, align 8
  store ptr %this, ptr %this.addr, align 8
  %this1 = load ptr, ptr %this.addr, align 8
  call void @_ZN7datalog17tr_infrastructureINS_12table_traitsEE13plugin_objectD2Ev(ptr noundef nonnull align 8 dereferenceable(32) %this1) #3
  ret void
}

; Function Attrs: mustprogress uwtable
define linkonce_odr hidden void @_ZN3mapIN7datalog15table_signatureEP10ptr_vectorINS0_12sparse_tableEENS1_4hashENS1_2eqEEC2ERKS6_RKS7_(ptr noundef nonnull align 8 dereferenceable(24) %this, ptr noundef nonnull align 1 dereferenceable(1) %h, ptr noundef nonnull align 1 dereferenceable(1) %e) unnamed_addr #4 comdat align 2 {
entry:
  %this.addr = alloca ptr, align 8
  %h.addr = alloca ptr, align 8
  %e.addr = alloca ptr, align 8
  store ptr %this, ptr %this.addr, align 8
  store ptr %h, ptr %h.addr, align 8
  store ptr %e, ptr %e.addr, align 8
  %this1 = load ptr, ptr %this.addr, align 8
  %0 = load ptr, ptr %h.addr, align 8
  %1 = load ptr, ptr %e.addr, align 8
  call void @_ZN9table2mapI17default_map_entryIN7datalog15table_signatureEP10ptr_vectorINS1_12sparse_tableEEENS2_4hashENS2_2eqEEC2ERKS8_RKS9_(ptr noundef nonnull align 8 dereferenceable(24) %this1, ptr noundef nonnull align 1 dereferenceable(1) %0, ptr noundef nonnull align 1 dereferenceable(1) %1)
  ret void
}

; Function Attrs: mustprogress uwtable
define linkonce_odr hidden void @_ZN7datalog12table_pluginC2ERK6symbolRNS_16relation_managerE(ptr noundef nonnull align 8 dereferenceable(32) %this, ptr noundef nonnull align 8 dereferenceable(8) %n, ptr noundef nonnull align 1 %manager) unnamed_addr #4 comdat align 2 {
entry:
  %this.addr = alloca ptr, align 8
  %n.addr = alloca ptr, align 8
  %manager.addr = alloca ptr, align 8
  store ptr %this, ptr %this.addr, align 8
  store ptr %n, ptr %n.addr, align 8
  store ptr %manager, ptr %manager.addr, align 8
  %this1 = load ptr, ptr %this.addr, align 8
  %0 = load ptr, ptr %n.addr, align 8
  %1 = load ptr, ptr %manager.addr, align 8
  call void @_ZN7datalog17tr_infrastructureINS_12table_traitsEE13plugin_objectC2ERK6symbolRNS_16relation_managerE(ptr noundef nonnull align 8 dereferenceable(32) %this1, ptr noundef nonnull align 8 dereferenceable(8) %0, ptr noundef nonnull align 1 %1)
  store ptr getelementptr inbounds ({ [29 x ptr] }, ptr @_ZTVN7datalog12table_pluginE, i32 0, i32 0, i32 2), ptr %this1, align 8
  ret void
}

; Function Attrs: mustprogress uwtable
define hidden void @_ZN7datalog19sparse_table_pluginC2ERNS_16relation_managerE(ptr noundef nonnull align 8 dereferenceable(56) %this, ptr noundef nonnull align 1 %manager) unnamed_addr #4 align 2 personality ptr @__gxx_personality_v0 {
entry:
  %this.addr = alloca ptr, align 8
  %manager.addr = alloca ptr, align 8
  %ref.tmp = alloca %class.symbol, align 8
  %ref.tmp2 = alloca %"struct.datalog::table_signature::hash", align 1
  %ref.tmp3 = alloca %"struct.datalog::table_signature::eq", align 1
  %exn.slot = alloca ptr, align 8
  %ehselector.slot = alloca i32, align 4
  store ptr %this, ptr %this.addr, align 8
  store ptr %manager, ptr %manager.addr, align 8
  %this1 = load ptr, ptr %this.addr, align 8
  call void @_ZN6symbolC1EPKc(ptr noundef nonnull align 8 dereferenceable(8) %ref.tmp, ptr noundef @.str.10)
  %0 = load ptr, ptr %manager.addr, align 8
  call void @_ZN7datalog12table_pluginC2ERK6symbolRNS_16relation_managerE(ptr noundef nonnull align 8 dereferenceable(32) %this1, ptr noundef nonnull align 8 dereferenceable(8) %ref.tmp, ptr noundef nonnull align 1 %0)
  store ptr getelementptr inbounds ({ [29 x ptr] }, ptr @_ZTVN7datalog19sparse_table_pluginE, i32 0, i32 0, i32 2), ptr %this1, align 8
  %m_pool = getelementptr inbounds %"class.datalog::sparse_table_plugin", ptr %this1, i32 0, i32 1
  invoke void @_ZN3mapIN7datalog15table_signatureEP10ptr_vectorINS0_12sparse_tableEENS1_4hashENS1_2eqEEC2ERKS6_RKS7_(ptr noundef nonnull align 8 dereferenceable(24) %m_pool, ptr noundef nonnull align 1 dereferenceable(1) %ref.tmp2, ptr noundef nonnull align 1 dereferenceable(1) %ref.tmp3)
          to label %invoke.cont unwind label %lpad

invoke.cont:                                      ; preds = %entry
  ret void

lpad:                                             ; preds = %entry
  %1 = landingpad { ptr, i32 }
          cleanup
  %2 = extractvalue { ptr, i32 } %1, 0
  store ptr %2, ptr %exn.slot, align 8
  %3 = extractvalue { ptr, i32 } %1, 1
  store i32 %3, ptr %ehselector.slot, align 4
  call void @_ZN7datalog12table_pluginD2Ev(ptr noundef nonnull align 8 dereferenceable(32) %this1) #3
  br label %eh.resume

eh.resume:                                        ; preds = %lpad
  %exn = load ptr, ptr %exn.slot, align 8
  %sel = load i32, ptr %ehselector.slot, align 4
  %lpad.val = insertvalue { ptr, i32 } poison, ptr %exn, 0
  %lpad.val4 = insertvalue { ptr, i32 } %lpad.val, i32 %sel, 1
  resume { ptr, i32 } %lpad.val4
}