; Function Attrs: mustprogress uwtable
define hidden void @_ZN7datalog19sparse_table_pluginC2ERNS_16relation_managerE(ptr nocapture noundef nonnull writeonly align 8 dereferenceable(56) %this, ptr noundef nonnull align 1 %manager) unnamed_addr #3 align 2 personality ptr @__gxx_personality_v0 {
entry:
  %ref.tmp = alloca %class.symbol, align 8
  call void @_ZN6symbolC1EPKc(ptr noundef nonnull align 8 dereferenceable(8) %ref.tmp, ptr noundef nonnull @.str.10)
  %m_kind.i.i = getelementptr inbounds i8, ptr %this, i64 8
  store i32 -1, ptr %m_kind.i.i, align 8
  %m_name.i.i = getelementptr inbounds i8, ptr %this, i64 16
  %0 = load i64, ptr %ref.tmp, align 8
  store i64 %0, ptr %m_name.i.i, align 8
  %m_manager.i.i = getelementptr inbounds i8, ptr %this, i64 24
  store ptr %manager, ptr %m_manager.i.i, align 8
  store ptr getelementptr inbounds ({ [29 x ptr] }, ptr @_ZTVN7datalog19sparse_table_pluginE, i64 0, i32 0, i64 2), ptr %this, align 8
  %m_pool = getelementptr inbounds i8, ptr %this, i64 32
  %call.i.i.i.i.i1 = call noalias noundef ptr @_ZN6memory8allocateEm(i64 noundef 256)
  call void @llvm.memset.p0.i64(ptr noundef nonnull align 8 dereferenceable(256) %call.i.i.i.i.i1, i8 0, i64 256, i1 false)
  store ptr %call.i.i.i.i.i1, ptr %m_pool, align 8
  %m_capacity.i.i.i = getelementptr inbounds i8, ptr %this, i64 40
  store i32 8, ptr %m_capacity.i.i.i, align 8
  %m_size.i.i.i = getelementptr inbounds i8, ptr %this, i64 44
  store i32 0, ptr %m_size.i.i.i, align 4
  %m_num_deleted.i.i.i = getelementptr inbounds i8, ptr %this, i64 48
  store i32 0, ptr %m_num_deleted.i.i.i, align 8
  ret void
}